(dp1
S'twisted_reactors'
p2
ccopy_reg
_reconstructor
p3
(ctwisted.plugin
CachedDropin
p4
c__builtin__
object
p5
NtRp6
(dp7
S'moduleName'
p8
S'twisted.plugins.twisted_reactors'
p9
sS'description'
p10
NsS'plugins'
p11
(lp12
g3
(ctwisted.plugin
CachedPlugin
p13
g5
NtRp14
(dp15
S'provided'
p16
(lp17
ctwisted.plugin
IPlugin
p18
actwisted.application.reactors
IReactorInstaller
p19
asS'dropin'
p20
g6
sS'name'
p21
S'glade'
p22
sg10
S'\n    @ivar moduleName: The fully-qualified Python name of the module of which\n    the install callable is an attribute.\n    '
p23
sbag3
(g13
g5
NtRp24
(dp25
g16
(lp26
g18
ag19
asg20
g6
sg21
S'win32er'
p27
sg10
g23
sbag3
(g13
g5
NtRp28
(dp29
g16
(lp30
g18
ag19
asg20
g6
sg21
S'glib2'
p31
sg10
g23
sbag3
(g13
g5
NtRp32
(dp33
g16
(lp34
g18
ag19
asg20
g6
sg21
S'kqueue'
p35
sg10
g23
sbag3
(g13
g5
NtRp36
(dp37
g16
(lp38
g18
ag19
asg20
g6
sg21
S'epoll'
p39
sg10
g23
sbag3
(g13
g5
NtRp40
(dp41
g16
(lp42
g18
ag19
asg20
g6
sg21
S'iocp'
p43
sg10
g23
sbag3
(g13
g5
NtRp44
(dp45
g16
(lp46
g18
ag19
asg20
g6
sg21
S'gtk'
p47
sg10
g23
sbag3
(g13
g5
NtRp48
(dp49
g16
(lp50
g18
ag19
asg20
g6
sg21
S'cf'
p51
sg10
g23
sbag3
(g13
g5
NtRp52
(dp53
g16
(lp54
g18
ag19
asg20
g6
sg21
S'gtk2'
p55
sg10
g23
sbag3
(g13
g5
NtRp56
(dp57
g16
(lp58
g18
ag19
asg20
g6
sg21
S'default'
p59
sg10
g23
sbag3
(g13
g5
NtRp60
(dp61
g16
(lp62
g18
ag19
asg20
g6
sg21
S'gi'
p63
sg10
g23
sbag3
(g13
g5
NtRp64
(dp65
g16
(lp66
g18
ag19
asg20
g6
sg21
S'poll'
p67
sg10
g23
sbag3
(g13
g5
NtRp68
(dp69
g16
(lp70
g18
ag19
asg20
g6
sg21
S'gtk3'
p71
sg10
g23
sbag3
(g13
g5
NtRp72
(dp73
g16
(lp74
g18
ag19
asg20
g6
sg21
S'select'
p75
sg10
g23
sbag3
(g13
g5
NtRp76
(dp77
g16
(lp78
g18
ag19
asg20
g6
sg21
S'wx'
p79
sg10
g23
sbasbsS'cred_memory'
p80
g3
(g4
g5
NtRp81
(dp82
g8
S'twisted.plugins.cred_memory'
p83
sg10
S'\nCred plugin for an in-memory user database.\n'
p84
sg11
(lp85
g3
(g13
g5
NtRp86
(dp87
g16
(lp88
ctwisted.cred.strcred
ICheckerFactory
p89
ag18
asg20
g81
sg21
S'theInMemoryCheckerFactory'
p90
sg10
S"\n    A factory for in-memory credentials checkers.\n\n    This is only of use in one-off test programs or examples which don't\n    want to focus too much on how credentials are verified.\n\n    You really don't want to use this for anything else.  It is, at best, a\n    toy.  If you need a simple credentials checker for a real application,\n    see L{cred_passwd.PasswdCheckerFactory}.\n    "
p91
sbasbsS'twisted_web'
p92
g3
(g4
g5
NtRp93
(dp94
g8
S'twisted.plugins.twisted_web'
p95
sg10
Nsg11
(lp96
g3
(g13
g5
NtRp97
(dp98
g16
(lp99
g18
actwisted.application.service
IServiceMaker
p100
asg20
g93
sg21
S'TwistedWeb'
p101
sg10
S'\n    Utility class to simplify the definition of L{IServiceMaker} plugins.\n    '
p102
sbasbsS'twisted_inet'
p103
g3
(g4
g5
NtRp104
(dp105
g8
S'twisted.plugins.twisted_inet'
p106
sg10
Nsg11
(lp107
g3
(g13
g5
NtRp108
(dp109
g16
(lp110
g18
ag100
asg20
g104
sg21
S'TwistedINETD'
p111
sg10
g102
sbasbsS'cred_file'
p112
g3
(g4
g5
NtRp113
(dp114
g8
S'twisted.plugins.cred_file'
p115
sg10
S"\nCred plugin for a file of the format 'username:password'.\n"
p116
sg11
(lp117
g3
(g13
g5
NtRp118
(dp119
g16
(lp120
g89
ag18
asg20
g113
sg21
S'theFileCheckerFactory'
p121
sg10
S'\n    A factory for instances of L{FilePasswordDB}.\n    '
p122
sbasbsS'twisted_trial'
p123
g3
(g4
g5
NtRp124
(dp125
g8
S'twisted.plugins.twisted_trial'
p126
sg10
Nsg11
(lp127
g3
(g13
g5
NtRp128
(dp129
g16
(lp130
g18
actwisted.trial.itrial
IReporter
p131
asg20
g124
sg21
S'Subunit'
p132
sg10
Nsbag3
(g13
g5
NtRp133
(dp134
g16
(lp135
g18
ag131
asg20
g124
sg21
S'BlackAndWhite'
p136
sg10
Nsbag3
(g13
g5
NtRp137
(dp138
g16
(lp139
g18
ag131
asg20
g124
sg21
S'Classic'
p140
sg10
Nsbag3
(g13
g5
NtRp141
(dp142
g16
(lp143
g18
ag131
asg20
g124
sg21
S'Tree'
p144
sg10
Nsbag3
(g13
g5
NtRp145
(dp146
g16
(lp147
g18
ag131
asg20
g124
sg21
S'Timing'
p148
sg10
Nsbag3
(g13
g5
NtRp149
(dp150
g16
(lp151
g18
ag131
asg20
g124
sg21
S'Minimal'
p152
sg10
NsbasbsS'twisted_ftp'
p153
g3
(g4
g5
NtRp154
(dp155
g8
S'twisted.plugins.twisted_ftp'
p156
sg10
Nsg11
(lp157
g3
(g13
g5
NtRp158
(dp159
g16
(lp160
g18
ag100
asg20
g154
sg21
S'TwistedFTP'
p161
sg10
g102
sbasbsS'twisted_telnet'
p162
g3
(g4
g5
NtRp163
(dp164
g8
S'twisted.plugins.twisted_telnet'
p165
sg10
Nsg11
(lp166
g3
(g13
g5
NtRp167
(dp168
g16
(lp169
g18
ag100
asg20
g163
sg21
S'TwistedTelnet'
p170
sg10
g102
sbasbsS'twisted_news'
p171
g3
(g4
g5
NtRp172
(dp173
g8
S'twisted.plugins.twisted_news'
p174
sg10
Nsg11
(lp175
g3
(g13
g5
NtRp176
(dp177
g16
(lp178
g18
ag100
asg20
g172
sg21
S'TwistedNews'
p179
sg10
g102
sbasbsS'twisted_socks'
p180
g3
(g4
g5
NtRp181
(dp182
g8
S'twisted.plugins.twisted_socks'
p183
sg10
Nsg11
(lp184
g3
(g13
g5
NtRp185
(dp186
g16
(lp187
g18
ag100
asg20
g181
sg21
S'TwistedSOCKS'
p188
sg10
g102
sbasbsS'twisted_manhole'
p189
g3
(g4
g5
NtRp190
(dp191
g8
S'twisted.plugins.twisted_manhole'
p192
sg10
Nsg11
(lp193
g3
(g13
g5
NtRp194
(dp195
g16
(lp196
g18
ag100
asg20
g190
sg21
S'TwistedManhole'
p197
sg10
g102
sbasbsS'twisted_qtstub'
p198
g3
(g4
g5
NtRp199
(dp200
g8
S'twisted.plugins.twisted_qtstub'
p201
sg10
S'\nBackwards-compatibility plugin for the Qt reactor.\n\nThis provides a Qt reactor plugin named C{qt} which emits a deprecation\nwarning and a pointer to the separately distributed Qt reactor plugins.\n'
p202
sg11
(lp203
g3
(g13
g5
NtRp204
(dp205
g16
(lp206
g18
ag19
asg20
g199
sg21
S'qt'
p207
sg10
S'\n    Reactor plugin which emits a deprecation warning on the successful\n    installation of its reactor or a pointer to further information if an\n    ImportError occurs while attempting to install it.\n    '
p208
sbasbsS'cred_unix'
p209
g3
(g4
g5
NtRp210
(dp211
g8
S'twisted.plugins.cred_unix'
p212
sg10
S'\nCred plugin for UNIX user accounts.\n'
p213
sg11
(lp214
g3
(g13
g5
NtRp215
(dp216
g16
(lp217
g89
ag18
asg20
g210
sg21
S'theUnixCheckerFactory'
p218
sg10
S'\n    A factory for L{UNIXChecker}.\n    '
p219
sbasbsS'twisted_words'
p220
g3
(g4
g5
NtRp221
(dp222
g8
S'twisted.plugins.twisted_words'
p223
sg10
Nsg11
(lp224
g3
(g13
g5
NtRp225
(dp226
g16
(lp227
g18
ag100
asg20
g221
sg21
S'TwistedXMPPRouter'
p228
sg10
g102
sbag3
(g13
g5
NtRp229
(dp230
g16
(lp231
g18
actwisted.words.iwords
IProtocolPlugin
p232
asg20
g221
sg21
S'RelayChatInterface'
p233
sg10
Nsbag3
(g13
g5
NtRp234
(dp235
g16
(lp236
g18
ag100
asg20
g221
sg21
S'NewTwistedWords'
p237
sg10
g102
sbag3
(g13
g5
NtRp238
(dp239
g16
(lp240
g18
ag232
asg20
g221
sg21
S'PBChatInterface'
p241
sg10
NsbasbsS'cred_anonymous'
p242
g3
(g4
g5
NtRp243
(dp244
g8
S'twisted.plugins.cred_anonymous'
p245
sg10
S'\nCred plugin for anonymous logins.\n'
p246
sg11
(lp247
g3
(g13
g5
NtRp248
(dp249
g16
(lp250
g89
ag18
asg20
g243
sg21
S'theAnonymousCheckerFactory'
p251
sg10
S'\n    Generates checkers that will authenticate an anonymous request.\n    '
p252
sbasbsS'twisted_lore'
p253
g3
(g4
g5
NtRp254
(dp255
g8
S'twisted.plugins.twisted_lore'
p256
sg10
Nsg11
(lp257
g3
(g13
g5
NtRp258
(dp259
g16
(lp260
g18
actwisted.lore.scripts.lore
IProcessor
p261
asg20
g254
sg21
S'SlideProcessor'
p262
sg10
Nsbag3
(g13
g5
NtRp263
(dp264
g16
(lp265
g18
ag261
asg20
g254
sg21
S'DefaultProcessor'
p266
sg10
Nsbag3
(g13
g5
NtRp267
(dp268
g16
(lp269
g18
ag261
asg20
g254
sg21
S'MathProcessor'
p270
sg10
Nsbag3
(g13
g5
NtRp271
(dp272
g16
(lp273
g18
ag261
asg20
g254
sg21
S'NevowProcessor'
p274
sg10
Nsbag3
(g13
g5
NtRp275
(dp276
g16
(lp277
g18
ag261
asg20
g254
sg21
S'ManProcessor'
p278
sg10
NsbasbsS'twisted_names'
p279
g3
(g4
g5
NtRp280
(dp281
g8
S'twisted.plugins.twisted_names'
p282
sg10
Nsg11
(lp283
g3
(g13
g5
NtRp284
(dp285
g16
(lp286
g18
ag100
asg20
g280
sg21
S'TwistedNames'
p287
sg10
g102
sbasbsS'twisted_mail'
p288
g3
(g4
g5
NtRp289
(dp290
g8
S'twisted.plugins.twisted_mail'
p291
sg10
Nsg11
(lp292
g3
(g13
g5
NtRp293
(dp294
g16
(lp295
g18
ag100
asg20
g289
sg21
S'TwistedMail'
p296
sg10
g102
sbasbsS'twisted_conch'
p297
g3
(g4
g5
NtRp298
(dp299
g8
S'twisted.plugins.twisted_conch'
p300
sg10
Nsg11
(lp301
g3
(g13
g5
NtRp302
(dp303
g16
(lp304
g18
ag100
asg20
g298
sg21
g197
sg10
g102
sbag3
(g13
g5
NtRp305
(dp306
g16
(lp307
g18
ag100
asg20
g298
sg21
S'TwistedSSH'
p308
sg10
g102
sbasbsS'twisted_portforward'
p309
g3
(g4
g5
NtRp310
(dp311
g8
S'twisted.plugins.twisted_portforward'
p312
sg10
Nsg11
(lp313
g3
(g13
g5
NtRp314
(dp315
g16
(lp316
g18
ag100
asg20
g310
sg21
S'TwistedPortForward'
p317
sg10
g102
sbasbsS'twisted_runner'
p318
g3
(g4
g5
NtRp319
(dp320
g8
S'twisted.plugins.twisted_runner'
p321
sg10
Nsg11
(lp322
g3
(g13
g5
NtRp323
(dp324
g16
(lp325
g18
ag100
asg20
g319
sg21
S'TwistedProcmon'
p326
sg10
g102
sbasbs.